target datalayout = "e-m:e-p270:32:32-p271:32:32-p272:64:64-i64:64-i128:128-f80:128-n8:16:32:64-S128"
target triple = "x86_64-unknown-linux-gnu"

%"struct.google::SiteFlag" = type { ptr, ptr, i64, ptr }
%"class.google::LogMessageVoidify" = type { i8 }
%"class.google::LogMessage" = type { ptr, ptr, %"struct.google::LogMessageTime" }
%"struct.google::LogMessageTime" = type { %struct.tm, i64, i32, i64 }
%struct.tm = type { i32, i32, i32, i32, i32, i32, i32, i32, i32, i64, ptr }

@_ZN3fLI7FLAGS_vE = external global i32, align 4
@.str = private unnamed_addr constant [151 x i8] c"generated/home/dtcxzyw/WorkSpace/Projects/compilers/llvm-opt-benchmark/bench/proxygen/proxygen/proxygen/lib/http/session/CodecErrorResponseHandler.cpp\00", align 1
@_ZZN8proxygen25CodecErrorResponseHandler10onTrailersESt10unique_ptrINS_11HTTPHeadersESt14default_deleteIS2_EEE8vlocal__ = internal global %"struct.google::SiteFlag" zeroinitializer, align 8
@.str.3 = private unnamed_addr constant [28 x i8] c"discarding request trailers\00", align 1

; Function Attrs: mustprogress nounwind uwtable
define linkonce_odr void @_ZN6google17LogMessageVoidifyanERSo(ptr noundef nonnull align 1 dereferenceable(1) %this, ptr noundef nonnull align 8 dereferenceable(8) %0) #4 comdat align 2 {
entry:
  %this.addr = alloca ptr, align 8
  %.addr = alloca ptr, align 8
  store ptr %this, ptr %this.addr, align 8
  store ptr %0, ptr %.addr, align 8
  ret void
}

; Function Attrs: mustprogress nounwind uwtable
define linkonce_odr void @_ZN6google17LogMessageVoidifyC2Ev(ptr noundef nonnull align 1 dereferenceable(1) %this) unnamed_addr #4 comdat align 2 {
entry:
  %this.addr = alloca ptr, align 8
  store ptr %this, ptr %this.addr, align 8
  ret void
}

; Function Attrs: mustprogress nounwind uwtable
define void @_ZN8proxygen25CodecErrorResponseHandler10onTrailersESt10unique_ptrINS_11HTTPHeadersESt14default_deleteIS2_EE(ptr noundef nonnull align 8 dereferenceable(16) %this, ptr noundef %0) unnamed_addr #4 align 2 personality ptr @__gxx_personality_v0 {
entry:
  %this.addr = alloca ptr, align 8
  %.indirect_addr = alloca ptr, align 8
  %verbose_level__ = alloca i32, align 4
  %tmp = alloca i8, align 1
  %ref.tmp = alloca %"class.google::LogMessageVoidify", align 1
  %ref.tmp6 = alloca %"class.google::LogMessage", align 8
  %cleanup.cond = alloca i1, align 1
  store ptr %this, ptr %this.addr, align 8
  store ptr %0, ptr %.indirect_addr, align 8
  store i32 4, ptr %verbose_level__, align 4
  %1 = load ptr, ptr @_ZZN8proxygen25CodecErrorResponseHandler10onTrailersESt10unique_ptrINS_11HTTPHeadersESt14default_deleteIS2_EEE8vlocal__, align 8
  %cmp = icmp eq ptr %1, null
  store i1 false, ptr %cleanup.cond, align 1
  br i1 %cmp, label %cond.true, label %cond.false

cond.true:                                        ; preds = %entry
  %2 = load i32, ptr %verbose_level__, align 4
  %call = invoke noundef zeroext i1 @_ZN6google11InitVLOG3__EPNS_8SiteFlagEPiPKci(ptr noundef @_ZZN8proxygen25CodecErrorResponseHandler10onTrailersESt10unique_ptrINS_11HTTPHeadersESt14default_deleteIS2_EEE8vlocal__, ptr noundef @_ZN3fLI7FLAGS_vE, ptr noundef @.str, i32 noundef %2)
          to label %invoke.cont unwind label %terminate.lpad

invoke.cont:                                      ; preds = %cond.true
  br label %cond.end

cond.false:                                       ; preds = %entry
  %3 = load ptr, ptr @_ZZN8proxygen25CodecErrorResponseHandler10onTrailersESt10unique_ptrINS_11HTTPHeadersESt14default_deleteIS2_EEE8vlocal__, align 8
  %4 = load i32, ptr %3, align 4
  %5 = load i32, ptr %verbose_level__, align 4
  %cmp2 = icmp sge i32 %4, %5
  br label %cond.end

cond.end:                                         ; preds = %cond.false, %invoke.cont
  %cond = phi i1 [ %call, %invoke.cont ], [ %cmp2, %cond.false ]
  %frombool = zext i1 %cond to i8
  store i8 %frombool, ptr %tmp, align 1
  %6 = load i8, ptr %tmp, align 1
  %tobool = trunc i8 %6 to i1
  br i1 %tobool, label %cond.false4, label %cond.true3

cond.true3:                                       ; preds = %cond.end
  br label %cond.end13

cond.false4:                                      ; preds = %cond.end
  invoke void @_ZN6google17LogMessageVoidifyC2Ev(ptr noundef nonnull align 1 dereferenceable(1) %ref.tmp)
          to label %invoke.cont5 unwind label %terminate.lpad

invoke.cont5:                                     ; preds = %cond.false4
  invoke void @_ZN6google10LogMessageC1EPKci(ptr noundef nonnull align 8 dereferenceable(96) %ref.tmp6, ptr noundef @.str, i32 noundef 44)
          to label %invoke.cont7 unwind label %terminate.lpad

invoke.cont7:                                     ; preds = %invoke.cont5
  store i1 true, ptr %cleanup.cond, align 1
  %call9 = invoke noundef nonnull align 8 dereferenceable(8) ptr @_ZN6google10LogMessage6streamEv(ptr noundef nonnull align 8 dereferenceable(96) %ref.tmp6)
          to label %invoke.cont8 unwind label %terminate.lpad

invoke.cont8:                                     ; preds = %invoke.cont7
  %call11 = invoke noundef nonnull align 8 dereferenceable(8) ptr @_ZStlsISt11char_traitsIcEERSt13basic_ostreamIcT_ES5_PKc(ptr noundef nonnull align 8 dereferenceable(8) %call9, ptr noundef @.str.3)
          to label %invoke.cont10 unwind label %terminate.lpad

invoke.cont10:                                    ; preds = %invoke.cont8
  invoke void @_ZN6google17LogMessageVoidifyanERSo(ptr noundef nonnull align 1 dereferenceable(1) %ref.tmp, ptr noundef nonnull align 8 dereferenceable(8) %call11)
          to label %invoke.cont12 unwind label %terminate.lpad

invoke.cont12:                                    ; preds = %invoke.cont10
  br label %cond.end13

cond.end13:                                       ; preds = %invoke.cont12, %cond.true3
  %cleanup.is_active = load i1, ptr %cleanup.cond, align 1
  br i1 %cleanup.is_active, label %cleanup.action, label %cleanup.done

cleanup.action:                                   ; preds = %cond.end13
  call void @_ZN6google10LogMessageD1Ev(ptr noundef nonnull align 8 dereferenceable(96) %ref.tmp6) #3
  br label %cleanup.done

cleanup.done:                                     ; preds = %cleanup.action, %cond.end13
  ret void

terminate.lpad:                                   ; preds = %invoke.cont10, %invoke.cont8, %invoke.cont7, %invoke.cont5, %cond.false4, %cond.true
  %7 = landingpad { ptr, i32 }
          catch ptr null
  %8 = extractvalue { ptr, i32 } %7, 0
  call void @__clang_call_terminate(ptr %8) #11
  unreachable
}