; Function Attrs: mustprogress nounwind uwtable
define void @_ZN8proxygen25CodecErrorResponseHandler10onTrailersESt10unique_ptrINS_11HTTPHeadersESt14default_deleteIS2_EE(ptr nocapture nonnull readnone align 8 %this, ptr nocapture readnone %0) unnamed_addr #5 align 2 personality ptr @__gxx_personality_v0 {
entry:
  %ref.tmp6 = alloca %"class.google::LogMessage", align 8
  %1 = load ptr, ptr @_ZZN8proxygen25CodecErrorResponseHandler10onTrailersESt10unique_ptrINS_11HTTPHeadersESt14default_deleteIS2_EEE8vlocal__, align 8
  %cmp = icmp eq ptr %1, null
  br i1 %cmp, label %cond.true, label %cond.false

cond.true:                                        ; preds = %entry
  %call = invoke noundef zeroext i1 @_ZN6google11InitVLOG3__EPNS_8SiteFlagEPiPKci(ptr noundef nonnull @_ZZN8proxygen25CodecErrorResponseHandler10onTrailersESt10unique_ptrINS_11HTTPHeadersESt14default_deleteIS2_EEE8vlocal__, ptr noundef nonnull @_ZN3fLI7FLAGS_vE, ptr noundef nonnull @.str, i32 noundef 4)
          to label %cond.end unwind label %terminate.lpad

cond.false:                                       ; preds = %entry
  %2 = load i32, ptr %1, align 4
  %cmp2 = icmp sgt i32 %2, 3
  br i1 %cmp2, label %cond.false4, label %cleanup.done

cond.end:                                         ; preds = %cond.true
  br i1 %call, label %cond.false4, label %cleanup.done

cond.false4:                                      ; preds = %cond.false, %cond.end
  invoke void @_ZN6google10LogMessageC1EPKci(ptr noundef nonnull align 8 dereferenceable(96) %ref.tmp6, ptr noundef nonnull @.str, i32 noundef 44)
          to label %invoke.cont7 unwind label %terminate.lpad

invoke.cont7:                                     ; preds = %cond.false4
  %call9 = invoke noundef nonnull align 8 dereferenceable(8) ptr @_ZN6google10LogMessage6streamEv(ptr noundef nonnull align 8 dereferenceable(96) %ref.tmp6)
          to label %invoke.cont8 unwind label %terminate.lpad

invoke.cont8:                                     ; preds = %invoke.cont7
  %call11 = invoke noundef nonnull align 8 dereferenceable(8) ptr @_ZStlsISt11char_traitsIcEERSt13basic_ostreamIcT_ES5_PKc(ptr noundef nonnull align 8 dereferenceable(8) %call9, ptr noundef nonnull @.str.3)
          to label %cleanup.action unwind label %terminate.lpad

cleanup.action:                                   ; preds = %invoke.cont8
  call void @_ZN6google10LogMessageD1Ev(ptr noundef nonnull align 8 dereferenceable(96) %ref.tmp6) #10
  br label %cleanup.done

cleanup.done:                                     ; preds = %cond.false, %cond.end, %cleanup.action
  ret void

terminate.lpad:                                   ; preds = %invoke.cont8, %invoke.cont7, %cond.false4, %cond.true
  %3 = landingpad { ptr, i32 }
          catch ptr null
  %4 = extractvalue { ptr, i32 } %3, 0
  call void @__clang_call_terminate(ptr %4) #12
  unreachable
}